; Function Attrs: mustprogress uwtable
define dso_local void @_ZN24cmInstallTargetGeneratorC2ENSt7__cxx1112basic_stringIcSt11char_traitsIcESaIcEEERKS5_bS5_RKSt6vectorIS5_SaIS5_EES7_N18cmInstallGenerator12MessageLevelEbb19cmListFileBacktrace(ptr noundef nonnull align 8 dereferenceable(282) %0, ptr noundef %1, ptr noundef nonnull align 8 dereferenceable(32) %2, i1 noundef zeroext %3, ptr noundef %4, ptr noundef nonnull align 8 dereferenceable(24) %5, ptr noundef nonnull align 8 dereferenceable(32) %6, i32 noundef %7, i1 noundef zeroext %8, i1 noundef zeroext %9, ptr nocapture noundef %10) unnamed_addr #3 align 2 personality ptr @__gxx_personality_v0 {
  %12 = alloca %"class.std::__cxx11::basic_string", align 8
  %13 = alloca %"class.std::__cxx11::basic_string", align 8
  %14 = alloca %class.cmListFileBacktrace, align 16
  call void @_ZNSt7__cxx1112basic_stringIcSt11char_traitsIcESaIcEEC1ERKS4_(ptr noundef nonnull align 8 dereferenceable(32) %12, ptr noundef nonnull align 8 dereferenceable(32) %2)
  invoke void @_ZNSt7__cxx1112basic_stringIcSt11char_traitsIcESaIcEEC1ERKS4_(ptr noundef nonnull align 8 dereferenceable(32) %13, ptr noundef nonnull align 8 dereferenceable(32) %6)
          to label %15 unwind label %65

15:                                               ; preds = %11
  %16 = getelementptr inbounds i8, ptr %10, i64 8
  %17 = load <2 x ptr>, ptr %10, align 8
  store ptr null, ptr %16, align 8
  store <2 x ptr> %17, ptr %14, align 16
  store ptr null, ptr %10, align 8
  invoke void @_ZN18cmInstallGeneratorC2ENSt7__cxx1112basic_stringIcSt11char_traitsIcESaIcEEERKSt6vectorIS5_SaIS5_EES5_NS_12MessageLevelEbb19cmListFileBacktrace(ptr noundef nonnull align 8 dereferenceable(200) %0, ptr noundef nonnull %12, ptr noundef nonnull align 8 dereferenceable(24) %5, ptr noundef nonnull %13, i32 noundef %7, i1 noundef zeroext %8, i1 noundef zeroext false, ptr noundef nonnull %14)
          to label %18 unwind label %67

18:                                               ; preds = %15
  %19 = getelementptr inbounds i8, ptr %14, i64 8
  %20 = load ptr, ptr %19, align 8
  %.not.i.i.i.i.i = icmp eq ptr %20, null
  br i1 %.not.i.i.i.i.i, label %_ZN19cmListFileBacktraceD2Ev.exit, label %21

21:                                               ; preds = %18
  %22 = getelementptr inbounds i8, ptr %20, i64 8
  %23 = load atomic i64, ptr %22 acquire, align 8
  %24 = icmp eq i64 %23, 4294967297
  %25 = trunc i64 %23 to i32
  br i1 %24, label %26, label %31

26:                                               ; preds = %21
  store i32 0, ptr %22, align 8
  %27 = getelementptr inbounds i8, ptr %20, i64 12
  store i32 0, ptr %27, align 4
  %28 = load ptr, ptr %20, align 8
  %29 = getelementptr inbounds i8, ptr %28, i64 16
  %30 = load ptr, ptr %29, align 8
  call void %30(ptr noundef nonnull align 8 dereferenceable(16) %20) #19
  br label %_ZNSt16_Sp_counted_baseILN9__gnu_cxx12_Lock_policyE2EE24_M_release_last_use_coldEv.exit.sink.split.i.i.i.i.i.i

31:                                               ; preds = %21
  %32 = load i8, ptr @__libc_single_threaded, align 1
  %.not.i.i.i.i.i.i = icmp eq i8 %32, 0
  br i1 %.not.i.i.i.i.i.i, label %35, label %33

33:                                               ; preds = %31
  %34 = add nsw i32 %25, -1
  store i32 %34, ptr %22, align 4
  br label %37

35:                                               ; preds = %31
  %36 = atomicrmw volatile add ptr %22, i32 -1 acq_rel, align 4
  br label %37

37:                                               ; preds = %35, %33
  %.0.i.i.i.i.i.i = phi i32 [ %25, %33 ], [ %36, %35 ]
  %38 = icmp eq i32 %.0.i.i.i.i.i.i, 1
  br i1 %38, label %39, label %_ZN19cmListFileBacktraceD2Ev.exit

39:                                               ; preds = %37
  %40 = load ptr, ptr %20, align 8
  %41 = getelementptr inbounds i8, ptr %40, i64 16
  %42 = load ptr, ptr %41, align 8
  call void %42(ptr noundef nonnull align 8 dereferenceable(16) %20) #19
  %43 = getelementptr inbounds i8, ptr %20, i64 12
  %44 = load i8, ptr @__libc_single_threaded, align 1
  %.not.i.i.i.i.i.i.i.i = icmp eq i8 %44, 0
  br i1 %.not.i.i.i.i.i.i.i.i, label %48, label %45

45:                                               ; preds = %39
  %46 = load i32, ptr %43, align 4
  %47 = add nsw i32 %46, -1
  store i32 %47, ptr %43, align 4
  br label %50

48:                                               ; preds = %39
  %49 = atomicrmw volatile add ptr %43, i32 -1 acq_rel, align 4
  br label %50

50:                                               ; preds = %48, %45
  %.0.i.i.i.i.i.i.i.i = phi i32 [ %46, %45 ], [ %49, %48 ]
  %51 = icmp eq i32 %.0.i.i.i.i.i.i.i.i, 1
  br i1 %51, label %_ZNSt16_Sp_counted_baseILN9__gnu_cxx12_Lock_policyE2EE24_M_release_last_use_coldEv.exit.sink.split.i.i.i.i.i.i, label %_ZN19cmListFileBacktraceD2Ev.exit

_ZNSt16_Sp_counted_baseILN9__gnu_cxx12_Lock_policyE2EE24_M_release_last_use_coldEv.exit.sink.split.i.i.i.i.i.i: ; preds = %50, %26
  %52 = load ptr, ptr %20, align 8
  %53 = getelementptr inbounds i8, ptr %52, i64 24
  %54 = load ptr, ptr %53, align 8
  call void %54(ptr noundef nonnull align 8 dereferenceable(16) %20) #19
  br label %_ZN19cmListFileBacktraceD2Ev.exit

_ZN19cmListFileBacktraceD2Ev.exit:                ; preds = %18, %37, %50, %_ZNSt16_Sp_counted_baseILN9__gnu_cxx12_Lock_policyE2EE24_M_release_last_use_coldEv.exit.sink.split.i.i.i.i.i.i
  %55 = zext i1 %3 to i8
  %56 = zext i1 %9 to i8
  call void @_ZNSt7__cxx1112basic_stringIcSt11char_traitsIcESaIcEED1Ev(ptr noundef nonnull align 8 dereferenceable(32) %13) #19
  call void @_ZNSt7__cxx1112basic_stringIcSt11char_traitsIcESaIcEED1Ev(ptr noundef nonnull align 8 dereferenceable(32) %12) #19
  store ptr getelementptr inbounds ({ [13 x ptr] }, ptr @_ZTV24cmInstallTargetGenerator, i64 0, i32 0, i64 2), ptr %0, align 8
  %57 = getelementptr inbounds i8, ptr %0, i64 200
  call void @_ZNSt7__cxx1112basic_stringIcSt11char_traitsIcESaIcEEC1EOS4_(ptr noundef nonnull align 8 dereferenceable(32) %57, ptr noundef nonnull align 8 dereferenceable(32) %1) #19
  %58 = getelementptr inbounds i8, ptr %0, i64 232
  store ptr null, ptr %58, align 8
  %59 = getelementptr inbounds i8, ptr %0, i64 240
  call void @_ZNSt7__cxx1112basic_stringIcSt11char_traitsIcESaIcEEC1EOS4_(ptr noundef nonnull align 8 dereferenceable(32) %59, ptr noundef nonnull align 8 dereferenceable(32) %4) #19
  %60 = getelementptr inbounds i8, ptr %0, i64 280
  store i8 %55, ptr %60, align 8
  %61 = getelementptr inbounds i8, ptr %0, i64 281
  store i8 %56, ptr %61, align 1
  %62 = getelementptr inbounds i8, ptr %0, i64 104
  store i8 1, ptr %62, align 8
  %63 = getelementptr inbounds i8, ptr %0, i64 272
  store i32 0, ptr %63, align 8
  %64 = getelementptr inbounds i8, ptr %0, i64 276
  store i32 0, ptr %64, align 4
  ret void

65:                                               ; preds = %11
  %66 = landingpad { ptr, i32 }
          cleanup
  br label %69

67:                                               ; preds = %15
  %68 = landingpad { ptr, i32 }
          cleanup
  call void @_ZN19cmListFileBacktraceD2Ev(ptr noundef nonnull align 8 dereferenceable(16) %14) #19
  call void @_ZNSt7__cxx1112basic_stringIcSt11char_traitsIcESaIcEED1Ev(ptr noundef nonnull align 8 dereferenceable(32) %13) #19
  br label %69

69:                                               ; preds = %67, %65
  %.pn = phi { ptr, i32 } [ %68, %67 ], [ %66, %65 ]
  call void @_ZNSt7__cxx1112basic_stringIcSt11char_traitsIcESaIcEED1Ev(ptr noundef nonnull align 8 dereferenceable(32) %12) #19
  resume { ptr, i32 } %.pn
}